target datalayout = "e-m:e-p270:32:32-p271:32:32-p272:64:64-i64:64-i128:128-f80:128-n8:16:32:64-S128"
target triple = "x86_64-pc-linux-gnu"

%"class.vcg::Color4" = type { %"class.vcg::Point4" }
%"class.vcg::Point4" = type { [4 x i8] }
%"struct.std::pair.163" = type { %"class.vcg::Point3", %"class.vcg::Color4" }
%"class.vcg::Point3" = type { [3 x float] }
%"class.vcg::Matrix44" = type { %"struct.std::array.127" }
%"struct.std::array.127" = type { [16 x float] }
%"class.__gnu_cxx::__normal_iterator.165" = type { ptr }
%"struct.std::_Vector_base.140" = type { %"struct.std::_Vector_base<std::pair<vcg::Point3<float>, vcg::Color4<unsigned char>>, std::allocator<std::pair<vcg::Point3<float>, vcg::Color4<unsigned char>>>>::_Vector_impl" }
%"struct.std::_Vector_base<std::pair<vcg::Point3<float>, vcg::Color4<unsigned char>>, std::allocator<std::pair<vcg::Point3<float>, vcg::Color4<unsigned char>>>>::_Vector_impl" = type { %"struct.std::_Vector_base<std::pair<vcg::Point3<float>, vcg::Color4<unsigned char>>, std::allocator<std::pair<vcg::Point3<float>, vcg::Color4<unsigned char>>>>::_Vector_impl_data" }
%"struct.std::_Vector_base<std::pair<vcg::Point3<float>, vcg::Color4<unsigned char>>, std::allocator<std::pair<vcg::Point3<float>, vcg::Color4<unsigned char>>>>::_Vector_impl_data" = type { ptr, ptr, ptr }

; Function Attrs: mustprogress nounwind uwtable
define linkonce_odr noundef nonnull align 4 dereferenceable(4) ptr @_ZNSt14__array_traitsIfLm16EE6_S_refERA16_Kfm(ptr noundef nonnull align 4 dereferenceable(64) %0, i64 noundef %1) #4 comdat align 2 {
  %3 = alloca ptr, align 8
  %4 = alloca i64, align 8
  store ptr %0, ptr %3, align 8
  store i64 %1, ptr %4, align 8
  %5 = load ptr, ptr %3, align 8
  %6 = load i64, ptr %4, align 8
  %7 = getelementptr inbounds [16 x float], ptr %5, i64 0, i64 %6
  ret ptr %7
}

; Function Attrs: mustprogress nounwind uwtable
define linkonce_odr noundef nonnull align 4 dereferenceable(4) ptr @_ZNSt5arrayIfLm16EEixEm(ptr noundef nonnull align 4 dereferenceable(64) %0, i64 noundef %1) #4 comdat align 2 {
  %3 = alloca ptr, align 8
  %4 = alloca i64, align 8
  store ptr %0, ptr %3, align 8
  store i64 %1, ptr %4, align 8
  %5 = load ptr, ptr %3, align 8
  %6 = getelementptr inbounds %"struct.std::array.127", ptr %5, i32 0, i32 0
  %7 = load i64, ptr %4, align 8
  %8 = call noundef nonnull align 4 dereferenceable(4) ptr @_ZNSt14__array_traitsIfLm16EE6_S_refERA16_Kfm(ptr noundef nonnull align 4 dereferenceable(64) %6, i64 noundef %7) #3
  ret ptr %8
}

; Function Attrs: mustprogress nounwind uwtable
define linkonce_odr noundef ptr @_ZNSt14__array_traitsIfLm16EE6_S_ptrERA16_Kf(ptr noundef nonnull align 4 dereferenceable(64) %0) #4 comdat align 2 {
  %2 = alloca ptr, align 8
  store ptr %0, ptr %2, align 8
  %3 = load ptr, ptr %2, align 8
  %4 = getelementptr inbounds [16 x float], ptr %3, i64 0, i64 0
  ret ptr %4
}

; Function Attrs: mustprogress nounwind uwtable
define linkonce_odr void @_ZSt4swapIfENSt9enable_ifIXsr6__and_ISt6__not_ISt15__is_tuple_likeIT_EESt21is_move_constructibleIS3_ESt18is_move_assignableIS3_EEE5valueEvE4typeERS3_SC_(ptr noundef nonnull align 4 dereferenceable(4) %0, ptr noundef nonnull align 4 dereferenceable(4) %1) #4 comdat {
  %3 = alloca ptr, align 8
  %4 = alloca ptr, align 8
  %5 = alloca float, align 4
  store ptr %0, ptr %3, align 8
  store ptr %1, ptr %4, align 8
  %6 = load ptr, ptr %3, align 8
  %7 = load float, ptr %6, align 4
  store float %7, ptr %5, align 4
  %8 = load ptr, ptr %4, align 8
  %9 = load float, ptr %8, align 4
  %10 = load ptr, ptr %3, align 8
  store float %9, ptr %10, align 4
  %11 = load float, ptr %5, align 4
  %12 = load ptr, ptr %4, align 8
  store float %11, ptr %12, align 4
  ret void
}

; Function Attrs: mustprogress nounwind uwtable
define linkonce_odr noundef nonnull align 4 dereferenceable(4) ptr @_ZN3vcg8Matrix44IfE9ElementAtEii(ptr noundef nonnull align 4 dereferenceable(64) %0, i32 noundef %1, i32 noundef %2) #4 comdat align 2 {
  %4 = alloca ptr, align 8
  %5 = alloca i32, align 4
  %6 = alloca i32, align 4
  store ptr %0, ptr %4, align 8
  store i32 %1, ptr %5, align 4
  store i32 %2, ptr %6, align 4
  %7 = load ptr, ptr %4, align 8
  %8 = getelementptr inbounds %"class.vcg::Matrix44", ptr %7, i32 0, i32 0
  %9 = load i32, ptr %5, align 4
  %10 = shl i32 %9, 2
  %11 = load i32, ptr %6, align 4
  %12 = add nsw i32 %10, %11
  %13 = sext i32 %12 to i64
  %14 = call noundef nonnull align 4 dereferenceable(4) ptr @_ZNSt5arrayIfLm16EEixEm(ptr noundef nonnull align 4 dereferenceable(64) %8, i64 noundef %13) #3
  ret ptr %14
}

; Function Attrs: mustprogress nounwind willreturn memory(none) uwtable
define linkonce_odr noundef ptr @_ZNSt5arrayIfLm16EE4dataEv(ptr noundef nonnull align 4 dereferenceable(64) %0) #15 comdat align 2 {
  %2 = alloca ptr, align 8
  store ptr %0, ptr %2, align 8
  %3 = load ptr, ptr %2, align 8
  %4 = getelementptr inbounds %"struct.std::array.127", ptr %3, i32 0, i32 0
  %5 = call noundef ptr @_ZNSt14__array_traitsIfLm16EE6_S_ptrERA16_Kf(ptr noundef nonnull align 4 dereferenceable(64) %4) #3
  ret ptr %5
}

; Function Attrs: mustprogress uwtable
define linkonce_odr noundef nonnull align 4 dereferenceable(64) ptr @_ZN3vcg9TransposeIfEERNS_8Matrix44IT_EES4_(ptr noundef nonnull align 4 dereferenceable(64) %0) #5 comdat {
  %2 = alloca ptr, align 8
  %3 = alloca i32, align 4
  %4 = alloca i32, align 4
  store ptr %0, ptr %2, align 8
  store i32 1, ptr %3, align 4
  br label %5

5:                                                ; preds = %26, %1
  %6 = load i32, ptr %3, align 4
  %7 = icmp slt i32 %6, 4
  br i1 %7, label %8, label %29

8:                                                ; preds = %5
  store i32 0, ptr %4, align 4
  br label %9

9:                                                ; preds = %22, %8
  %10 = load i32, ptr %4, align 4
  %11 = load i32, ptr %3, align 4
  %12 = icmp slt i32 %10, %11
  br i1 %12, label %13, label %25

13:                                               ; preds = %9
  %14 = load ptr, ptr %2, align 8
  %15 = load i32, ptr %3, align 4
  %16 = load i32, ptr %4, align 4
  %17 = call noundef nonnull align 4 dereferenceable(4) ptr @_ZN3vcg8Matrix44IfE9ElementAtEii(ptr noundef nonnull align 4 dereferenceable(64) %14, i32 noundef %15, i32 noundef %16)
  %18 = load ptr, ptr %2, align 8
  %19 = load i32, ptr %4, align 4
  %20 = load i32, ptr %3, align 4
  %21 = call noundef nonnull align 4 dereferenceable(4) ptr @_ZN3vcg8Matrix44IfE9ElementAtEii(ptr noundef nonnull align 4 dereferenceable(64) %18, i32 noundef %19, i32 noundef %20)
  call void @_ZSt4swapIfENSt9enable_ifIXsr6__and_ISt6__not_ISt15__is_tuple_likeIT_EESt21is_move_constructibleIS3_ESt18is_move_assignableIS3_EEE5valueEvE4typeERS3_SC_(ptr noundef nonnull align 4 dereferenceable(4) %17, ptr noundef nonnull align 4 dereferenceable(4) %21) #3
  br label %22

22:                                               ; preds = %13
  %23 = load i32, ptr %4, align 4
  %24 = add nsw i32 %23, 1
  store i32 %24, ptr %4, align 4
  br label %9, !llvm.loop !44

25:                                               ; preds = %9
  br label %26

26:                                               ; preds = %25
  %27 = load i32, ptr %3, align 4
  %28 = add nsw i32 %27, 1
  store i32 %28, ptr %3, align 4
  br label %5, !llvm.loop !45

29:                                               ; preds = %5
  %30 = load ptr, ptr %2, align 8
  ret ptr %30
}

; Function Attrs: mustprogress nounwind uwtable
define linkonce_odr void @_ZN9__gnu_cxx17__normal_iteratorIPSt4pairIN3vcg6Point3IfEENS2_6Color4IhEEESt6vectorIS7_SaIS7_EEEC2ERKS8_(ptr noundef nonnull align 8 dereferenceable(8) %0, ptr noundef nonnull align 8 dereferenceable(8) %1) unnamed_addr #4 comdat align 2 {
  %3 = alloca ptr, align 8
  %4 = alloca ptr, align 8
  store ptr %0, ptr %3, align 8
  store ptr %1, ptr %4, align 8
  %5 = load ptr, ptr %3, align 8
  %6 = getelementptr inbounds %"class.__gnu_cxx::__normal_iterator.165", ptr %5, i32 0, i32 0
  %7 = load ptr, ptr %4, align 8
  %8 = load ptr, ptr %7, align 8
  store ptr %8, ptr %6, align 8
  ret void
}

; Function Attrs: mustprogress nounwind uwtable
define linkonce_odr void @_ZN3vcg8Matrix44IfED2Ev(ptr noundef nonnull align 4 dereferenceable(64) %0) unnamed_addr #4 comdat align 2 {
  %2 = alloca ptr, align 8
  store ptr %0, ptr %2, align 8
  ret void
}

; Function Attrs: mustprogress nounwind uwtable
define linkonce_odr noundef ptr @_ZN3vcg8Matrix44IfE1VEv(ptr noundef nonnull align 4 dereferenceable(64) %0) #4 comdat align 2 {
  %2 = alloca ptr, align 8
  store ptr %0, ptr %2, align 8
  %3 = load ptr, ptr %2, align 8
  %4 = getelementptr inbounds %"class.vcg::Matrix44", ptr %3, i32 0, i32 0
  %5 = call noundef ptr @_ZNSt5arrayIfLm16EE4dataEv(ptr noundef nonnull align 4 dereferenceable(64) %4) #22
  ret ptr %5
}

; Function Attrs: mustprogress uwtable
define linkonce_odr void @_ZNK3vcg8Matrix44IfE9transposeEv(ptr dead_on_unwind noalias writable sret(%"class.vcg::Matrix44") align 4 %0, ptr noundef nonnull align 4 dereferenceable(64) %1) #5 comdat align 2 personality ptr @__gxx_personality_v0 {
  %3 = alloca ptr, align 8
  %4 = alloca ptr, align 8
  %5 = alloca i1, align 1
  %6 = alloca ptr, align 8
  %7 = alloca i32, align 4
  store ptr %0, ptr %3, align 8
  store ptr %1, ptr %4, align 8
  %8 = load ptr, ptr %4, align 8
  store i1 false, ptr %5, align 1
  call void @llvm.memcpy.p0.p0.i64(ptr align 4 %0, ptr align 4 %8, i64 64, i1 false)
  %9 = invoke noundef nonnull align 4 dereferenceable(64) ptr @_ZN3vcg9TransposeIfEERNS_8Matrix44IT_EES4_(ptr noundef nonnull align 4 dereferenceable(64) %0)
          to label %10 unwind label %12

10:                                               ; preds = %2
  store i1 true, ptr %5, align 1
  %11 = load i1, ptr %5, align 1
  br i1 %11, label %17, label %16

12:                                               ; preds = %2
  %13 = landingpad { ptr, i32 }
          cleanup
  %14 = extractvalue { ptr, i32 } %13, 0
  store ptr %14, ptr %6, align 8
  %15 = extractvalue { ptr, i32 } %13, 1
  store i32 %15, ptr %7, align 4
  call void @_ZN3vcg8Matrix44IfED2Ev(ptr noundef nonnull align 4 dereferenceable(64) %0) #3
  br label %18

16:                                               ; preds = %10
  call void @_ZN3vcg8Matrix44IfED2Ev(ptr noundef nonnull align 4 dereferenceable(64) %0) #3
  br label %17

17:                                               ; preds = %16, %10
  ret void

18:                                               ; preds = %12
  %19 = load ptr, ptr %6, align 8
  %20 = load i32, ptr %7, align 4
  %21 = insertvalue { ptr, i32 } poison, ptr %19, 0
  %22 = insertvalue { ptr, i32 } %21, i32 %20, 1
  resume { ptr, i32 } %22
}

; Function Attrs: mustprogress nounwind uwtable
define linkonce_odr noundef nonnull align 4 dereferenceable(16) ptr @_ZNK9__gnu_cxx17__normal_iteratorIPSt4pairIN3vcg6Point3IfEENS2_6Color4IhEEESt6vectorIS7_SaIS7_EEEixEl(ptr noundef nonnull align 8 dereferenceable(8) %0, i64 noundef %1) #4 comdat align 2 {
  %3 = alloca ptr, align 8
  %4 = alloca i64, align 8
  store ptr %0, ptr %3, align 8
  store i64 %1, ptr %4, align 8
  %5 = load ptr, ptr %3, align 8
  %6 = getelementptr inbounds %"class.__gnu_cxx::__normal_iterator.165", ptr %5, i32 0, i32 0
  %7 = load ptr, ptr %6, align 8
  %8 = load i64, ptr %4, align 8
  %9 = getelementptr inbounds %"struct.std::pair.163", ptr %7, i64 %8
  ret ptr %9
}

; Function Attrs: mustprogress nounwind uwtable
define linkonce_odr ptr @_ZNSt6vectorISt4pairIN3vcg6Point3IfEENS1_6Color4IhEEESaIS6_EE5beginEv(ptr noundef nonnull align 8 dereferenceable(24) %0) #4 comdat align 2 {
  %2 = alloca %"class.__gnu_cxx::__normal_iterator.165", align 8
  %3 = alloca ptr, align 8
  store ptr %0, ptr %3, align 8
  %4 = load ptr, ptr %3, align 8
  %5 = getelementptr inbounds %"struct.std::_Vector_base.140", ptr %4, i32 0, i32 0
  %6 = getelementptr inbounds %"struct.std::_Vector_base<std::pair<vcg::Point3<float>, vcg::Color4<unsigned char>>, std::allocator<std::pair<vcg::Point3<float>, vcg::Color4<unsigned char>>>>::_Vector_impl_data", ptr %5, i32 0, i32 0
  call void @_ZN9__gnu_cxx17__normal_iteratorIPSt4pairIN3vcg6Point3IfEENS2_6Color4IhEEESt6vectorIS7_SaIS7_EEEC2ERKS8_(ptr noundef nonnull align 8 dereferenceable(8) %2, ptr noundef nonnull align 8 dereferenceable(8) %6) #3
  %7 = getelementptr inbounds %"class.__gnu_cxx::__normal_iterator.165", ptr %2, i32 0, i32 0
  %8 = load ptr, ptr %7, align 8
  ret ptr %8
}

; Function Attrs: mustprogress nounwind uwtable
define linkonce_odr noundef i32 @_ZN3vcg10GL_TYPE_NMIfE6SCALAREv() #4 comdat align 2 {
  ret i32 5126
}

; Function Attrs: mustprogress nounwind uwtable
define linkonce_odr noundef i64 @_ZNKSt6vectorISt4pairIN3vcg6Point3IfEENS1_6Color4IhEEESaIS6_EE4sizeEv(ptr noundef nonnull align 8 dereferenceable(24) %0) #4 comdat align 2 {
  %2 = alloca ptr, align 8
  store ptr %0, ptr %2, align 8
  %3 = load ptr, ptr %2, align 8
  %4 = getelementptr inbounds %"struct.std::_Vector_base.140", ptr %3, i32 0, i32 0
  %5 = getelementptr inbounds %"struct.std::_Vector_base<std::pair<vcg::Point3<float>, vcg::Color4<unsigned char>>, std::allocator<std::pair<vcg::Point3<float>, vcg::Color4<unsigned char>>>>::_Vector_impl_data", ptr %4, i32 0, i32 1
  %6 = load ptr, ptr %5, align 8
  %7 = getelementptr inbounds %"struct.std::_Vector_base.140", ptr %3, i32 0, i32 0
  %8 = getelementptr inbounds %"struct.std::_Vector_base<std::pair<vcg::Point3<float>, vcg::Color4<unsigned char>>, std::allocator<std::pair<vcg::Point3<float>, vcg::Color4<unsigned char>>>>::_Vector_impl_data", ptr %7, i32 0, i32 0
  %9 = load ptr, ptr %8, align 8
  %10 = ptrtoint ptr %6 to i64
  %11 = ptrtoint ptr %9 to i64
  %12 = sub i64 %10, %11
  %13 = sdiv exact i64 %12, 16
  ret i64 %13
}

; Function Attrs: mustprogress uwtable
define linkonce_odr void @_ZN3vcg12glMultMatrixERKNS_8Matrix44IfEE(ptr noundef nonnull align 4 dereferenceable(64) %0) #5 comdat personality ptr @__gxx_personality_v0 {
  %2 = alloca ptr, align 8
  %3 = alloca %"class.vcg::Matrix44", align 4
  %4 = alloca ptr, align 8
  %5 = alloca i32, align 4
  store ptr %0, ptr %2, align 8
  %6 = load ptr, ptr %2, align 8
  call void @_ZNK3vcg8Matrix44IfE9transposeEv(ptr dead_on_unwind writable sret(%"class.vcg::Matrix44") align 4 %3, ptr noundef nonnull align 4 dereferenceable(64) %6)
  %7 = invoke noundef ptr @_ZN3vcg8Matrix44IfE1VEv(ptr noundef nonnull align 4 dereferenceable(64) %3)
          to label %8 unwind label %10

8:                                                ; preds = %1
  invoke void @glMultMatrixf(ptr noundef %7)
          to label %9 unwind label %10

9:                                                ; preds = %8
  call void @_ZN3vcg8Matrix44IfED2Ev(ptr noundef nonnull align 4 dereferenceable(64) %3) #3
  ret void

10:                                               ; preds = %8, %1
  %11 = landingpad { ptr, i32 }
          cleanup
  %12 = extractvalue { ptr, i32 } %11, 0
  store ptr %12, ptr %4, align 8
  %13 = extractvalue { ptr, i32 } %11, 1
  store i32 %13, ptr %5, align 4
  call void @_ZN3vcg8Matrix44IfED2Ev(ptr noundef nonnull align 4 dereferenceable(64) %3) #3
  br label %14

14:                                               ; preds = %10
  %15 = load ptr, ptr %4, align 8
  %16 = load i32, ptr %5, align 4
  %17 = insertvalue { ptr, i32 } poison, ptr %15, 0
  %18 = insertvalue { ptr, i32 } %17, i32 %16, 1
  resume { ptr, i32 } %18
}

; Function Attrs: mustprogress uwtable
define void @_ZN23MLDefaultMeshDecorators14drawLineVectorERKN3vcg8Matrix44IfEERSt6vectorISt4pairINS0_6Point3IfEENS0_6Color4IhEEESaISB_EE(ptr noundef nonnull align 4 dereferenceable(64) %0, ptr noundef nonnull align 8 dereferenceable(24) %1) #5 align 2 {
  %3 = alloca ptr, align 8
  %4 = alloca ptr, align 8
  %5 = alloca %"class.__gnu_cxx::__normal_iterator.165", align 8
  %6 = alloca %"class.__gnu_cxx::__normal_iterator.165", align 8
  store ptr %0, ptr %3, align 8
  store ptr %1, ptr %4, align 8
  call void @glPushAttrib(i32 noundef 10497)
  call void @glDisable(i32 noundef 2896)
  call void @glDepthFunc(i32 noundef 515)
  call void @glEnable(i32 noundef 2848)
  call void @glEnable(i32 noundef 3042)
  call void @glBlendFunc(i32 noundef 770, i32 noundef 771)
  call void @glLineWidth(float noundef 1.000000e+00)
  call void @glDepthRange(double noundef 0.000000e+00, double noundef 0x3FEFF7CED916872B)
  call void @glMatrixMode(i32 noundef 5888)
  call void @glPushMatrix()
  %7 = load ptr, ptr %3, align 8
  call void @_ZN3vcg12glMultMatrixERKNS_8Matrix44IfEE(ptr noundef nonnull align 4 dereferenceable(64) %7)
  %8 = load ptr, ptr %4, align 8
  %9 = call noundef i64 @_ZNKSt6vectorISt4pairIN3vcg6Point3IfEENS1_6Color4IhEEESaIS6_EE4sizeEv(ptr noundef nonnull align 8 dereferenceable(24) %8) #3
  %10 = icmp ugt i64 %9, 0
  br i1 %10, label %11, label %26

11:                                               ; preds = %2
  call void @glEnableClientState(i32 noundef 32884)
  call void @glEnableClientState(i32 noundef 32886)
  %12 = call noundef i32 @_ZN3vcg10GL_TYPE_NMIfE6SCALAREv()
  %13 = load ptr, ptr %4, align 8
  %14 = call ptr @_ZNSt6vectorISt4pairIN3vcg6Point3IfEENS1_6Color4IhEEESaIS6_EE5beginEv(ptr noundef nonnull align 8 dereferenceable(24) %13) #3
  %15 = getelementptr inbounds %"class.__gnu_cxx::__normal_iterator.165", ptr %5, i32 0, i32 0
  store ptr %14, ptr %15, align 8
  %16 = call noundef nonnull align 4 dereferenceable(16) ptr @_ZNK9__gnu_cxx17__normal_iteratorIPSt4pairIN3vcg6Point3IfEENS2_6Color4IhEEESt6vectorIS7_SaIS7_EEEixEl(ptr noundef nonnull align 8 dereferenceable(8) %5, i64 noundef 0) #3
  %17 = getelementptr inbounds %"struct.std::pair.163", ptr %16, i32 0, i32 0
  call void @glVertexPointer(i32 noundef 3, i32 noundef %12, i32 noundef 16, ptr noundef %17)
  %18 = load ptr, ptr %4, align 8
  %19 = call ptr @_ZNSt6vectorISt4pairIN3vcg6Point3IfEENS1_6Color4IhEEESaIS6_EE5beginEv(ptr noundef nonnull align 8 dereferenceable(24) %18) #3
  %20 = getelementptr inbounds %"class.__gnu_cxx::__normal_iterator.165", ptr %6, i32 0, i32 0
  store ptr %19, ptr %20, align 8
  %21 = call noundef nonnull align 4 dereferenceable(16) ptr @_ZNK9__gnu_cxx17__normal_iteratorIPSt4pairIN3vcg6Point3IfEENS2_6Color4IhEEESt6vectorIS7_SaIS7_EEEixEl(ptr noundef nonnull align 8 dereferenceable(8) %6, i64 noundef 0) #3
  %22 = getelementptr inbounds %"struct.std::pair.163", ptr %21, i32 0, i32 1
  call void @glColorPointer(i32 noundef 4, i32 noundef 5121, i32 noundef 16, ptr noundef %22)
  %23 = load ptr, ptr %4, align 8
  %24 = call noundef i64 @_ZNKSt6vectorISt4pairIN3vcg6Point3IfEENS1_6Color4IhEEESaIS6_EE4sizeEv(ptr noundef nonnull align 8 dereferenceable(24) %23) #3
  %25 = trunc i64 %24 to i32
  call void @glDrawArrays(i32 noundef 1, i32 noundef 0, i32 noundef %25)
  call void @glDisableClientState(i32 noundef 32886)
  call void @glDisableClientState(i32 noundef 32884)
  br label %26

26:                                               ; preds = %11, %2
  call void @glPopMatrix()
  call void @glPopAttrib()
  ret void
}